; Function Attrs: nounwind uwtable
define noundef ptr @Dch_CreateCandEquivClasses(ptr noundef %0, i32 noundef %1, i32 noundef %2) local_unnamed_addr #2 {
  %4 = getelementptr i8, ptr %0, i64 32
  %.val = load ptr, ptr %4, align 8, !tbaa !37
  %5 = getelementptr i8, ptr %.val, i64 4
  %.val.val = load i32, ptr %5, align 4, !tbaa !34
  %6 = sext i32 %1 to i64
  %7 = shl nsw i64 %6, 2
  %8 = add nsw i64 %7, 8
  %9 = sext i32 %.val.val to i64
  %10 = mul i64 %8, %9
  %11 = tail call noalias ptr @malloc(i64 noundef %10) #8
  %12 = getelementptr inbounds ptr, ptr %11, i64 %9
  %13 = icmp sgt i32 %.val.val, 0
  br i1 %13, label %.lr.ph.preheader.i, label %Vec_PtrAllocSimInfo.exit

.lr.ph.preheader.i:                               ; preds = %3
  %wide.trip.count.i = zext nneg i32 %.val.val to i64
  br label %.lr.ph.i

.lr.ph.i:                                         ; preds = %.lr.ph.i, %.lr.ph.preheader.i
  %indvars.iv.i = phi i64 [ 0, %.lr.ph.preheader.i ], [ %indvars.iv.next.i, %.lr.ph.i ]
  %14 = mul nsw i64 %indvars.iv.i, %6
  %15 = getelementptr inbounds i32, ptr %12, i64 %14
  %16 = getelementptr inbounds nuw ptr, ptr %11, i64 %indvars.iv.i
  store ptr %15, ptr %16, align 8, !tbaa !9
  %indvars.iv.next.i = add nuw nsw i64 %indvars.iv.i, 1
  %exitcond.not.i = icmp eq i64 %indvars.iv.next.i, %wide.trip.count.i
  br i1 %exitcond.not.i, label %Vec_PtrAllocSimInfo.exit, label %.lr.ph.i, !llvm.loop !45

Vec_PtrAllocSimInfo.exit:                         ; preds = %.lr.ph.i, %3
  %17 = tail call noalias dereferenceable_or_null(16) ptr @malloc(i64 noundef 16) #8
  %18 = getelementptr inbounds nuw i8, ptr %17, i64 4
  store i32 %.val.val, ptr %18, align 4, !tbaa !34
  store i32 %.val.val, ptr %17, align 8, !tbaa !46
  %19 = getelementptr inbounds nuw i8, ptr %17, i64 8
  store ptr %11, ptr %19, align 8, !tbaa !3
  tail call void @Dch_PerformRandomSimulation(ptr noundef %0, ptr noundef nonnull %17)
  %20 = tail call ptr @Dch_ClassesStart(ptr noundef %0) #7
  tail call void @Dch_ClassesSetData(ptr noundef %20, ptr noundef nonnull %17, ptr noundef nonnull @Dch_NodeHash, ptr noundef nonnull @Dch_NodeIsConst, ptr noundef nonnull @Dch_NodesAreEqual) #7
  tail call void @Dch_ClassesPrepare(ptr noundef %20, i32 noundef 0, i32 noundef 0) #7
  br label %21

21:                                               ; preds = %Vec_PtrAllocSimInfo.exit, %21
  %.015 = phi i32 [ 0, %Vec_PtrAllocSimInfo.exit ], [ %23, %21 ]
  tail call void @Dch_PerformRandomSimulation(ptr noundef %0, ptr noundef nonnull %17)
  %22 = tail call i32 @Dch_ClassesRefine(ptr noundef %20) #7
  %23 = add nuw nsw i32 %.015, 1
  %exitcond.not = icmp eq i32 %23, 7
  br i1 %exitcond.not, label %24, label %21, !llvm.loop !47

24:                                               ; preds = %21
  %25 = load ptr, ptr %19, align 8, !tbaa !3
  %.not.i = icmp eq ptr %25, null
  br i1 %.not.i, label %Vec_PtrFree.exit, label %26

26:                                               ; preds = %24
  tail call void @free(ptr noundef nonnull %25) #7
  br label %Vec_PtrFree.exit

Vec_PtrFree.exit:                                 ; preds = %24, %26
  tail call void @free(ptr noundef nonnull %17) #7
  tail call void @Dch_ClassesSetData(ptr noundef %20, ptr noundef null, ptr noundef null, ptr noundef nonnull @Dch_NodeIsConstCex, ptr noundef nonnull @Dch_NodesAreEqualCex) #7
  ret ptr %20
}